; Function Attrs: nounwind uwtable
define nonnull ptr @l_Option_beqOption____x40_Init_Data_Option_Basic___hyg_160____at_Std_Tactic_BVDecide_LRAT_Internal_DefaultFormula_numClausesInFormula___spec__1___boxed(ptr noundef %0, ptr noundef %1, ptr noundef %2) local_unnamed_addr #1 {
  %4 = ptrtoint ptr %1 to i64
  %5 = and i64 %4, 1
  %.not.i.i = icmp eq i64 %5, 0
  br i1 %.not.i.i, label %9, label %6

6:                                                ; preds = %3
  %7 = lshr i64 %4, 1
  %8 = trunc i64 %7 to i32
  br label %lean_obj_tag.exit.i

9:                                                ; preds = %3
  %10 = getelementptr i8, ptr %1, i64 4
  %.val.i.i = load i32, ptr %10, align 4
  %11 = lshr i32 %.val.i.i, 24
  br label %lean_obj_tag.exit.i

lean_obj_tag.exit.i:                              ; preds = %9, %6
  %.0.i.i = phi i32 [ %8, %6 ], [ %11, %9 ]
  %12 = icmp eq i32 %.0.i.i, 0
  %13 = ptrtoint ptr %2 to i64
  %14 = and i64 %13, 1
  %.not.i12.i = icmp eq i64 %14, 0
  br i1 %12, label %15, label %23

15:                                               ; preds = %lean_obj_tag.exit.i
  br i1 %.not.i12.i, label %19, label %16

16:                                               ; preds = %15
  %17 = lshr i64 %13, 1
  %18 = trunc i64 %17 to i32
  br label %lean_obj_tag.exit15.i

19:                                               ; preds = %15
  %20 = getelementptr i8, ptr %2, i64 4
  %.val.i14.i = load i32, ptr %20, align 4
  %21 = lshr i32 %.val.i14.i, 24
  br label %lean_obj_tag.exit15.i

lean_obj_tag.exit15.i:                            ; preds = %19, %16
  %.0.i13.i = phi i32 [ %18, %16 ], [ %21, %19 ]
  %22 = icmp eq i32 %.0.i13.i, 0
  %..i = zext i1 %22 to i8
  br label %l_Option_beqOption____x40_Init_Data_Option_Basic___hyg_160____at_Std_Tactic_BVDecide_LRAT_Internal_DefaultFormula_numClausesInFormula___spec__1.exit

23:                                               ; preds = %lean_obj_tag.exit.i
  br i1 %.not.i12.i, label %27, label %24

24:                                               ; preds = %23
  %25 = lshr i64 %13, 1
  %26 = trunc i64 %25 to i32
  br label %lean_obj_tag.exit19.i

27:                                               ; preds = %23
  %28 = getelementptr i8, ptr %2, i64 4
  %.val.i18.i = load i32, ptr %28, align 4
  %29 = lshr i32 %.val.i18.i, 24
  br label %lean_obj_tag.exit19.i

lean_obj_tag.exit19.i:                            ; preds = %27, %24
  %.0.i17.i = phi i32 [ %26, %24 ], [ %29, %27 ]
  %30 = icmp eq i32 %.0.i17.i, 0
  br i1 %30, label %l_Option_beqOption____x40_Init_Data_Option_Basic___hyg_160____at_Std_Tactic_BVDecide_LRAT_Internal_DefaultFormula_numClausesInFormula___spec__1.exit, label %31

31:                                               ; preds = %lean_obj_tag.exit19.i
  %32 = getelementptr inbounds nuw i8, ptr %1, i64 8
  %33 = load ptr, ptr %32, align 8, !tbaa !9
  %34 = getelementptr inbounds nuw i8, ptr %2, i64 8
  %35 = load ptr, ptr %34, align 8, !tbaa !9
  %36 = tail call zeroext i8 @l_List_beq___at_Std_Tactic_BVDecide_LRAT_Internal_beqDefaultClause____x40_Std_Tactic_BVDecide_LRAT_Internal_Clause___hyg_653____spec__1(ptr noundef %0, ptr noundef %33, ptr noundef %35) #5
  br label %l_Option_beqOption____x40_Init_Data_Option_Basic___hyg_160____at_Std_Tactic_BVDecide_LRAT_Internal_DefaultFormula_numClausesInFormula___spec__1.exit

l_Option_beqOption____x40_Init_Data_Option_Basic___hyg_160____at_Std_Tactic_BVDecide_LRAT_Internal_DefaultFormula_numClausesInFormula___spec__1.exit: ; preds = %lean_obj_tag.exit15.i, %lean_obj_tag.exit19.i, %31
  %.0.i = phi i8 [ %36, %31 ], [ %..i, %lean_obj_tag.exit15.i ], [ 0, %lean_obj_tag.exit19.i ]
  br i1 %.not.i12.i, label %37, label %lean_dec.exit8

37:                                               ; preds = %l_Option_beqOption____x40_Init_Data_Option_Basic___hyg_160____at_Std_Tactic_BVDecide_LRAT_Internal_DefaultFormula_numClausesInFormula___spec__1.exit
  %38 = load i32, ptr %2, align 4, !tbaa !4
  %39 = icmp sgt i32 %38, 1
  br i1 %39, label %40, label %42, !prof !11

40:                                               ; preds = %37
  %41 = add nsw i32 %38, -1
  store i32 %41, ptr %2, align 4, !tbaa !4
  br label %lean_dec.exit8

42:                                               ; preds = %37
  %.not.i = icmp eq i32 %38, 0
  br i1 %.not.i, label %lean_dec.exit8, label %43

43:                                               ; preds = %42
  tail call void @lean_dec_ref_cold(ptr noundef nonnull %2) #5
  br label %lean_dec.exit8

lean_dec.exit8:                                   ; preds = %43, %42, %40, %l_Option_beqOption____x40_Init_Data_Option_Basic___hyg_160____at_Std_Tactic_BVDecide_LRAT_Internal_DefaultFormula_numClausesInFormula___spec__1.exit
  br i1 %.not.i.i, label %44, label %lean_dec.exit7

44:                                               ; preds = %lean_dec.exit8
  %45 = load i32, ptr %1, align 4, !tbaa !4
  %46 = icmp sgt i32 %45, 1
  br i1 %46, label %47, label %49, !prof !11

47:                                               ; preds = %44
  %48 = add nsw i32 %45, -1
  store i32 %48, ptr %1, align 4, !tbaa !4
  br label %lean_dec.exit7

49:                                               ; preds = %44
  %.not.i9 = icmp eq i32 %45, 0
  br i1 %.not.i9, label %lean_dec.exit7, label %50

50:                                               ; preds = %49
  tail call void @lean_dec_ref_cold(ptr noundef nonnull %1) #5
  br label %lean_dec.exit7

lean_dec.exit7:                                   ; preds = %50, %49, %47, %lean_dec.exit8
  %51 = ptrtoint ptr %0 to i64
  %52 = and i64 %51, 1
  %.not14 = icmp eq i64 %52, 0
  br i1 %.not14, label %53, label %lean_dec.exit

53:                                               ; preds = %lean_dec.exit7
  %54 = load i32, ptr %0, align 4, !tbaa !4
  %55 = icmp sgt i32 %54, 1
  br i1 %55, label %56, label %58, !prof !11

56:                                               ; preds = %53
  %57 = add nsw i32 %54, -1
  store i32 %57, ptr %0, align 4, !tbaa !4
  br label %lean_dec.exit

58:                                               ; preds = %53
  %.not.i11 = icmp eq i32 %54, 0
  br i1 %.not.i11, label %lean_dec.exit, label %59

59:                                               ; preds = %58
  tail call void @lean_dec_ref_cold(ptr noundef nonnull %0) #5
  br label %lean_dec.exit

lean_dec.exit:                                    ; preds = %59, %58, %56, %lean_dec.exit7
  %60 = zext i8 %.0.i to i64
  %61 = shl nuw nsw i64 %60, 1
  %62 = or disjoint i64 %61, 1
  %63 = inttoptr i64 %62 to ptr
  ret ptr %63
}